Certificate:
    Data:
        Version: 1 (0x0)
        Serial Number: 37 (0x25)
    Signature Algorithm: sha256WithRSAEncryption
        Issuer: CN=getperf_ca_192.168.10.1
        Validity
            Not Before: Jul  8 21:17:26 2020 GMT
            Not After : Jul  8 21:17:26 2021 GMT
        Subject: CN=site1__desktop-n8a02v9
        Subject Public Key Info:
            Public Key Algorithm: rsaEncryption
                Public-Key: (2048 bit)
                Modulus:
                    00:b4:57:c9:b9:38:1c:52:c8:ed:79:3b:84:39:7a:
                    1c:90:c3:14:fb:79:1d:c6:77:d8:ce:77:c1:20:76:
                    82:63:ca:98:bc:4d:74:58:84:d2:b0:88:0c:7a:18:
                    f3:02:0d:6f:2c:aa:06:0a:6c:6d:c6:79:01:7c:13:
                    2d:41:df:73:41:05:32:d0:e0:06:2f:f4:41:f6:1c:
                    32:a5:8d:39:21:ae:67:fa:4d:e8:2d:1e:66:30:14:
                    11:b8:40:82:03:ba:63:9e:e1:52:be:41:20:71:f6:
                    51:f1:9c:92:e5:43:97:99:21:9c:6c:a2:9a:04:4d:
                    cd:9f:2a:1a:4a:37:00:e7:ab:7b:28:e7:38:e5:14:
                    7a:69:11:21:23:69:86:06:76:3a:34:2e:1a:84:5e:
                    d6:ed:aa:fa:10:11:82:5b:31:ab:31:e7:9f:ed:97:
                    b3:6a:5a:8f:e9:09:a6:37:e6:99:e8:9d:8f:ad:1a:
                    06:5b:36:31:ed:fe:89:0f:80:56:40:d9:08:8d:13:
                    66:60:b8:b7:fe:1b:dc:b5:cb:d7:b4:eb:da:16:11:
                    05:59:14:cd:18:de:70:95:f8:f5:b8:49:da:b5:01:
                    1d:f4:6c:c5:3c:4b:c4:09:4c:b1:37:88:12:fe:46:
                    9c:1e:b0:19:06:8d:2f:dc:4e:ea:2e:c2:16:99:45:
                    4d:17
                Exponent: 65537 (0x10001)
    Signature Algorithm: sha256WithRSAEncryption
         ab:e2:68:4c:e6:63:c7:84:6d:f0:45:9a:61:dd:7a:ab:70:ea:
         92:3d:31:83:a2:d5:2e:ff:25:09:08:30:86:2d:08:5c:cb:0a:
         13:bb:80:53:24:5e:4c:70:58:94:96:a0:f7:63:49:69:04:4a:
         1b:1a:5e:1e:33:97:f7:22:36:68:4d:1f:54:6f:cd:6a:0e:03:
         53:31:21:9e:31:dc:a1:59:77:62:6b:72:6f:9d:87:2b:50:3e:
         8a:69:4b:23:c7:43:3e:52:2e:1a:b5:a6:0d:d5:72:d0:28:f3:
         5b:90:5f:17:8e:f9:8f:3b:a6:eb:ea:83:99:d7:2d:cd:b1:0c:
         a4:6d:e7:c4:9c:64:14:a6:4c:73:4a:6f:83:45:39:b0:e1:60:
         e4:60:fb:f3:ac:10:58:fa:99:43:16:2d:10:33:1a:2e:df:4e:
         81:84:1a:22:42:d5:30:59:a6:36:bc:11:c2:1c:4a:2b:50:8e:
         eb:81:6f:79:bf:19:60:33:c5:16:4a:e4:f7:ad:e3:a3:62:1c:
         ff:b1:dd:7d:29:19:18:ea:15:0a:7e:b8:1f:5e:c0:16:6b:ae:
         e5:98:b6:ed:f5:fa:49:d8:1c:5d:b5:c7:d6:0c:03:6c:03:dd:
         c2:e5:f3:84:2e:38:52:6e:9b:83:0f:85:27:05:e1:8a:5f:87:
         a0:59:74:16
-----BEGIN CERTIFICATE-----
MIICtzCCAZ8CASUwDQYJKoZIhvcNAQELBQAwIjEgMB4GA1UEAwwXZ2V0cGVyZl9j
YV8xOTIuMTY4LjEwLjEwHhcNMjAwNzA4MjExNzI2WhcNMjEwNzA4MjExNzI2WjAh
MR8wHQYDVQQDFBZzaXRlMV9fZGVza3RvcC1uOGEwMnY5MIIBIjANBgkqhkiG9w0B
AQEFAAOCAQ8AMIIBCgKCAQEAtFfJuTgcUsjteTuEOXockMMU+3kdxnfYznfBIHaC
Y8qYvE10WITSsIgMehjzAg1vLKoGCmxtxnkBfBMtQd9zQQUy0OAGL/RB9hwypY05
Ia5n+k3oLR5mMBQRuECCA7pjnuFSvkEgcfZR8ZyS5UOXmSGcbKKaBE3NnyoaSjcA
56t7KOc45RR6aREhI2mGBnY6NC4ahF7W7ar6EBGCWzGrMeef7ZezalqP6QmmN+aZ
6J2PrRoGWzYx7f6JD4BWQNkIjRNmYLi3/hvctcvXtOvaFhEFWRTNGN5wlfj1uEna
tQEd9GzFPEvECUyxN4gS/kacHrAZBo0v3E7qLsIWmUVNFwIDAQABMA0GCSqGSIb3
DQEBCwUAA4IBAQCr4mhM5mPHhG3wRZph3XqrcOqSPTGDotUu/yUJCDCGLQhcywoT
u4BTJF5McFiUlqD3Y0lpBEobGl4eM5f3IjZoTR9Ub81qDgNTMSGeMdyhWXdia3Jv
nYcrUD6KaUsjx0M+Ui4ataYN1XLQKPNbkF8XjvmPO6br6oOZ1y3NsQykbefEnGQU
pkxzSm+DRTmw4WDkYPvzrBBY+plDFi0QMxou306BhBoiQtUwWaY2vBHCHEorUI7r
gW95vxlgM8UWSuT3reOjYhz/sd19KRkY6hUKfrgfXsAWa67lmLbt9fpJ2BxdtcfW
DANsA93C5fOELjhSbpuDD4UnBeGKX4egWXQW
-----END CERTIFICATE-----
-----BEGIN RSA PRIVATE KEY-----
MIIEpQIBAAKCAQEAtFfJuTgcUsjteTuEOXockMMU+3kdxnfYznfBIHaCY8qYvE10
WITSsIgMehjzAg1vLKoGCmxtxnkBfBMtQd9zQQUy0OAGL/RB9hwypY05Ia5n+k3o
LR5mMBQRuECCA7pjnuFSvkEgcfZR8ZyS5UOXmSGcbKKaBE3NnyoaSjcA56t7KOc4
5RR6aREhI2mGBnY6NC4ahF7W7ar6EBGCWzGrMeef7ZezalqP6QmmN+aZ6J2PrRoG
WzYx7f6JD4BWQNkIjRNmYLi3/hvctcvXtOvaFhEFWRTNGN5wlfj1uEnatQEd9GzF
PEvECUyxN4gS/kacHrAZBo0v3E7qLsIWmUVNFwIDAQABAoIBAQCLyNf1FwbtLAzV
wUoV+w6VLoDfAtwPb+m+75fkf7dFfk2w9yBNVHaymmGBakFBwAQCTK9t+OmFw1lh
QMP9oSOGrG7c9CgXl25hQy4GoFY+Qx8ZJrXl8wAmGAg8FtQv65M4HVKzYWuyqciO
TFyYFDI3YZQLqGVVHLFaw5mpGMU8y6GYn3fvKVCO6mvb64HoQ6s9OatxtAIsAWQN
KaYWTUzNd9+oZahxou99H7qkLV0yuTlavkBER8FQ6NTz2wON2WsX/2Kx07kBP72e
MmjYpOzQ300vcahS5sH1JUJFC/VDcpIbhlVWb/c6x7ZPfRTBE65Q/CW8bB/b+YJY
2Cag+QIBAoGBAOvoK5HU9SPxNILP7NkROvOV6gd7Kf6DwxO2was3PSHX5aaEuNNl
DN2gbUoE6uODpysbfj+fgp8PXkdOSaFHC6Ul4yL/T1nnM7lF5RNkHD9UbSSHxnWL
fUvj/fP63LcjEw/RnkmIkW6kWJLrf8V1czhM3z+JNERXL6smqgeIB9qBAoGBAMO0
EsOF9h2SAIvzPATRpO2IyF6nHnhmVw1fXGHzWLzcuHtJvVZp7823/8/rDvoTSgJM
H/qwQF8HfwQ9AX34Nwh2Q7ZjLvRqN5kUxAdlp+ASV9xt7nsCAoGI3yQT+YeZMA4/
EPX6b7/oK0vO7umMc7jIimm1igtW30CNQcyZj+uXAoGBALeyxeK8WtvPIt3OPZfW
Q/qUPXXv4YaQYeLDCFJkJFVrQigF58qtQHSATTo7VBEwXodB1HCErHlhxT9vZgSR
Ry8lrpZ9CvRuBif6lmQgK6LhAlBU7iRwJ3RmKEXJjf+J73j8+O43y0/F6DcX7Rn8
2Gj560oVdD7XSYZUCEjvE3aBAoGATvHkI9V1S8ZqzAnJq1P6iQuFcJFPvFfkQ/O0
65pjsIQFM06yvxoq7zyLSA9VUlHXqAeXWuQgg3UdqtMFOBCZ+qLie7+U4Gm8ldcH
oMhEKSKdKMF700kjQ6e4A/C+1xFXjleoeuGUlMCOPp1ySOosgFz9YNknn51in8Kb
yXIk2W8CgYEA5IzS1urmP26KXPXzh+eEaRXoxsgZsZw86BO6CJIqJLOFStkOTkYe
HO7zOigEYvCyjOTtFB2GXxQ7NNDad34VyPtyNd9UBD0kQUwF1gSOnG3YMZqI3NeQ
c99pd2LZkWNQPTcdVXhaS9djeHMJaHrzQrPgDs1OL2OgmLhgAkPonn4=
-----END RSA PRIVATE KEY-----
